; Function Attrs: nounwind uwtable
define range(i32 0, 2) i32 @ossl_qlog_set_sink_filename(ptr noundef %0, ptr noundef %1) local_unnamed_addr #0 {
  %3 = icmp eq ptr %0, null
  br i1 %3, label %12, label %4

4:                                                ; preds = %2
  %5 = tail call ptr @BIO_new_file(ptr noundef %1, ptr noundef nonnull @.str.8) #11
  %6 = icmp eq ptr %5, null
  br i1 %6, label %12, label %ossl_qlog_set_sink_bio.exit

ossl_qlog_set_sink_bio.exit:                      ; preds = %4
  %7 = getelementptr inbounds nuw i8, ptr %0, i64 152
  %8 = tail call i32 @ossl_json_flush(ptr noundef nonnull %7) #11
  %9 = getelementptr inbounds nuw i8, ptr %0, i64 88
  %10 = load ptr, ptr %9, align 8, !tbaa !37
  tail call void @BIO_free_all(ptr noundef %10) #11
  store ptr %5, ptr %9, align 8, !tbaa !37
  %11 = tail call i32 @ossl_json_set0_sink(ptr noundef nonnull %7, ptr noundef nonnull %5) #11
  br label %12

12:                                               ; preds = %ossl_qlog_set_sink_bio.exit, %4, %2
  %.0 = phi i32 [ 0, %2 ], [ 0, %4 ], [ 1, %ossl_qlog_set_sink_bio.exit ]
  ret i32 %.0
}